; Function Attrs: mustprogress uwtable
define void @_ZNK6icu_7513MeasureFormat18getUnitDisplayNameERKNS_11MeasureUnitER10UErrorCode(ptr noalias sret(%"class.icu_75::UnicodeString") align 8 %agg.result, ptr noundef nonnull align 8 dereferenceable(368) %this, ptr noundef nonnull align 8 dereferenceable(19) %unit, ptr noundef nonnull align 4 dereferenceable(4) %status) local_unnamed_addr #1 align 2 personality ptr @__gxx_personality_v0 {
entry:
  %ref.tmp = alloca %"class.icu_75::Locale", align 8
  call void @_ZNK6icu_756Format9getLocaleE18ULocDataLocaleTypeR10UErrorCode(ptr nonnull sret(%"class.icu_75::Locale") align 8 %ref.tmp, ptr noundef nonnull align 8 dereferenceable(322) %this, i32 noundef 1, ptr noundef nonnull align 4 dereferenceable(4) %status)
  %fWidth = getelementptr inbounds i8, ptr %this, i64 352
  %0 = load i32, ptr %fWidth, align 8
  %1 = icmp ult i32 %0, 4
  br i1 %1, label %switch.lookup, label %_ZN6icu_75L12getUnitWidthE19UMeasureFormatWidth.exit

switch.lookup:                                    ; preds = %entry
  %2 = zext nneg i32 %0 to i64
  %switch.gep = getelementptr inbounds [4 x i32], ptr @switch.table._ZNK6icu_7513MeasureFormat18getUnitDisplayNameERKNS_11MeasureUnitER10UErrorCode, i64 0, i64 %2
  %switch.load = load i32, ptr %switch.gep, align 4
  br label %_ZN6icu_75L12getUnitWidthE19UMeasureFormatWidth.exit

_ZN6icu_75L12getUnitWidthE19UMeasureFormatWidth.exit: ; preds = %entry, %switch.lookup
  %retval.0.i = phi i32 [ %switch.load, %switch.lookup ], [ 1, %entry ]
  invoke void @_ZN6icu_756number4impl15LongNameHandler18getUnitDisplayNameERKNS_6LocaleERKNS_11MeasureUnitE16UNumberUnitWidthR10UErrorCode(ptr sret(%"class.icu_75::UnicodeString") align 8 %agg.result, ptr noundef nonnull align 8 dereferenceable(217) %ref.tmp, ptr noundef nonnull align 8 dereferenceable(19) %unit, i32 noundef %retval.0.i, ptr noundef nonnull align 4 dereferenceable(4) %status)
          to label %invoke.cont2 unwind label %lpad

invoke.cont2:                                     ; preds = %_ZN6icu_75L12getUnitWidthE19UMeasureFormatWidth.exit
  call void @_ZN6icu_756LocaleD1Ev(ptr noundef nonnull align 8 dereferenceable(217) %ref.tmp) #16
  ret void

lpad:                                             ; preds = %_ZN6icu_75L12getUnitWidthE19UMeasureFormatWidth.exit
  %3 = landingpad { ptr, i32 }
          cleanup
  call void @_ZN6icu_756LocaleD1Ev(ptr noundef nonnull align 8 dereferenceable(217) %ref.tmp) #16
  resume { ptr, i32 } %3
}